target datalayout = "e-m:e-p270:32:32-p271:32:32-p272:64:64-i64:64-i128:128-f80:128-n8:16:32:64-S128"
target triple = "x86_64-pc-linux-gnu"

; Function Attrs: nounwind uwtable
define i64 @QDLDL_etree(i64 noundef %0, ptr noundef %1, ptr noundef %2, ptr noundef %3, ptr noundef %4, ptr noundef %5) #0 {
  %7 = alloca i64, align 8
  %8 = alloca i64, align 8
  %9 = alloca ptr, align 8
  %10 = alloca ptr, align 8
  %11 = alloca ptr, align 8
  %12 = alloca ptr, align 8
  %13 = alloca ptr, align 8
  %14 = alloca i64, align 8
  %15 = alloca i64, align 8
  %16 = alloca i64, align 8
  %17 = alloca i64, align 8
  %18 = alloca i32, align 4
  store i64 %0, ptr %8, align 8, !tbaa !3
  store ptr %1, ptr %9, align 8, !tbaa !7
  store ptr %2, ptr %10, align 8, !tbaa !7
  store ptr %3, ptr %11, align 8, !tbaa !7
  store ptr %4, ptr %12, align 8, !tbaa !7
  store ptr %5, ptr %13, align 8, !tbaa !7
  call void @llvm.lifetime.start.p0(i64 8, ptr %14) #3
  call void @llvm.lifetime.start.p0(i64 8, ptr %15) #3
  call void @llvm.lifetime.start.p0(i64 8, ptr %16) #3
  call void @llvm.lifetime.start.p0(i64 8, ptr %17) #3
  store i64 0, ptr %15, align 8, !tbaa !3
  br label %19

19:                                               ; preds = %45, %6
  %20 = load i64, ptr %15, align 8, !tbaa !3
  %21 = load i64, ptr %8, align 8, !tbaa !3
  %22 = icmp slt i64 %20, %21
  br i1 %22, label %23, label %48

23:                                               ; preds = %19
  %24 = load ptr, ptr %11, align 8, !tbaa !7
  %25 = load i64, ptr %15, align 8, !tbaa !3
  %26 = getelementptr inbounds i64, ptr %24, i64 %25
  store i64 0, ptr %26, align 8, !tbaa !3
  %27 = load ptr, ptr %12, align 8, !tbaa !7
  %28 = load i64, ptr %15, align 8, !tbaa !3
  %29 = getelementptr inbounds i64, ptr %27, i64 %28
  store i64 0, ptr %29, align 8, !tbaa !3
  %30 = load ptr, ptr %13, align 8, !tbaa !7
  %31 = load i64, ptr %15, align 8, !tbaa !3
  %32 = getelementptr inbounds i64, ptr %30, i64 %31
  store i64 -1, ptr %32, align 8, !tbaa !3
  %33 = load ptr, ptr %9, align 8, !tbaa !7
  %34 = load i64, ptr %15, align 8, !tbaa !3
  %35 = getelementptr inbounds i64, ptr %33, i64 %34
  %36 = load i64, ptr %35, align 8, !tbaa !3
  %37 = load ptr, ptr %9, align 8, !tbaa !7
  %38 = load i64, ptr %15, align 8, !tbaa !3
  %39 = add nsw i64 %38, 1
  %40 = getelementptr inbounds i64, ptr %37, i64 %39
  %41 = load i64, ptr %40, align 8, !tbaa !3
  %42 = icmp eq i64 %36, %41
  br i1 %42, label %43, label %44

43:                                               ; preds = %23
  store i64 -1, ptr %7, align 8
  store i32 1, ptr %18, align 4
  br label %147

44:                                               ; preds = %23
  br label %45

45:                                               ; preds = %44
  %46 = load i64, ptr %15, align 8, !tbaa !3
  %47 = add nsw i64 %46, 1
  store i64 %47, ptr %15, align 8, !tbaa !3
  br label %19, !llvm.loop !10

48:                                               ; preds = %19
  store i64 0, ptr %16, align 8, !tbaa !3
  br label %49

49:                                               ; preds = %117, %48
  %50 = load i64, ptr %16, align 8, !tbaa !3
  %51 = load i64, ptr %8, align 8, !tbaa !3
  %52 = icmp slt i64 %50, %51
  br i1 %52, label %53, label %120

53:                                               ; preds = %49
  %54 = load i64, ptr %16, align 8, !tbaa !3
  %55 = load ptr, ptr %11, align 8, !tbaa !7
  %56 = load i64, ptr %16, align 8, !tbaa !3
  %57 = getelementptr inbounds i64, ptr %55, i64 %56
  store i64 %54, ptr %57, align 8, !tbaa !3
  %58 = load ptr, ptr %9, align 8, !tbaa !7
  %59 = load i64, ptr %16, align 8, !tbaa !3
  %60 = getelementptr inbounds i64, ptr %58, i64 %59
  %61 = load i64, ptr %60, align 8, !tbaa !3
  store i64 %61, ptr %17, align 8, !tbaa !3
  br label %62

62:                                               ; preds = %113, %53
  %63 = load i64, ptr %17, align 8, !tbaa !3
  %64 = load ptr, ptr %9, align 8, !tbaa !7
  %65 = load i64, ptr %16, align 8, !tbaa !3
  %66 = add nsw i64 %65, 1
  %67 = getelementptr inbounds i64, ptr %64, i64 %66
  %68 = load i64, ptr %67, align 8, !tbaa !3
  %69 = icmp slt i64 %63, %68
  br i1 %69, label %70, label %116

70:                                               ; preds = %62
  %71 = load ptr, ptr %10, align 8, !tbaa !7
  %72 = load i64, ptr %17, align 8, !tbaa !3
  %73 = getelementptr inbounds i64, ptr %71, i64 %72
  %74 = load i64, ptr %73, align 8, !tbaa !3
  store i64 %74, ptr %15, align 8, !tbaa !3
  %75 = load i64, ptr %15, align 8, !tbaa !3
  %76 = load i64, ptr %16, align 8, !tbaa !3
  %77 = icmp sgt i64 %75, %76
  br i1 %77, label %78, label %79

78:                                               ; preds = %70
  store i64 -1, ptr %7, align 8
  store i32 1, ptr %18, align 4
  br label %147

79:                                               ; preds = %70
  br label %80

80:                                               ; preds = %98, %79
  %81 = load ptr, ptr %11, align 8, !tbaa !7
  %82 = load i64, ptr %15, align 8, !tbaa !3
  %83 = getelementptr inbounds i64, ptr %81, i64 %82
  %84 = load i64, ptr %83, align 8, !tbaa !3
  %85 = load i64, ptr %16, align 8, !tbaa !3
  %86 = icmp ne i64 %84, %85
  br i1 %86, label %87, label %112

87:                                               ; preds = %80
  %88 = load ptr, ptr %13, align 8, !tbaa !7
  %89 = load i64, ptr %15, align 8, !tbaa !3
  %90 = getelementptr inbounds i64, ptr %88, i64 %89
  %91 = load i64, ptr %90, align 8, !tbaa !3
  %92 = icmp eq i64 %91, -1
  br i1 %92, label %93, label %98

93:                                               ; preds = %87
  %94 = load i64, ptr %16, align 8, !tbaa !3
  %95 = load ptr, ptr %13, align 8, !tbaa !7
  %96 = load i64, ptr %15, align 8, !tbaa !3
  %97 = getelementptr inbounds i64, ptr %95, i64 %96
  store i64 %94, ptr %97, align 8, !tbaa !3
  br label %98

98:                                               ; preds = %93, %87
  %99 = load ptr, ptr %12, align 8, !tbaa !7
  %100 = load i64, ptr %15, align 8, !tbaa !3
  %101 = getelementptr inbounds i64, ptr %99, i64 %100
  %102 = load i64, ptr %101, align 8, !tbaa !3
  %103 = add nsw i64 %102, 1
  store i64 %103, ptr %101, align 8, !tbaa !3
  %104 = load i64, ptr %16, align 8, !tbaa !3
  %105 = load ptr, ptr %11, align 8, !tbaa !7
  %106 = load i64, ptr %15, align 8, !tbaa !3
  %107 = getelementptr inbounds i64, ptr %105, i64 %106
  store i64 %104, ptr %107, align 8, !tbaa !3
  %108 = load ptr, ptr %13, align 8, !tbaa !7
  %109 = load i64, ptr %15, align 8, !tbaa !3
  %110 = getelementptr inbounds i64, ptr %108, i64 %109
  %111 = load i64, ptr %110, align 8, !tbaa !3
  store i64 %111, ptr %15, align 8, !tbaa !3
  br label %80, !llvm.loop !12

112:                                              ; preds = %80
  br label %113

113:                                              ; preds = %112
  %114 = load i64, ptr %17, align 8, !tbaa !3
  %115 = add nsw i64 %114, 1
  store i64 %115, ptr %17, align 8, !tbaa !3
  br label %62, !llvm.loop !13

116:                                              ; preds = %62
  br label %117

117:                                              ; preds = %116
  %118 = load i64, ptr %16, align 8, !tbaa !3
  %119 = add nsw i64 %118, 1
  store i64 %119, ptr %16, align 8, !tbaa !3
  br label %49, !llvm.loop !14

120:                                              ; preds = %49
  store i64 0, ptr %14, align 8, !tbaa !3
  store i64 0, ptr %15, align 8, !tbaa !3
  br label %121

121:                                              ; preds = %142, %120
  %122 = load i64, ptr %15, align 8, !tbaa !3
  %123 = load i64, ptr %8, align 8, !tbaa !3
  %124 = icmp slt i64 %122, %123
  br i1 %124, label %125, label %145

125:                                              ; preds = %121
  %126 = load i64, ptr %14, align 8, !tbaa !3
  %127 = load ptr, ptr %12, align 8, !tbaa !7
  %128 = load i64, ptr %15, align 8, !tbaa !3
  %129 = getelementptr inbounds i64, ptr %127, i64 %128
  %130 = load i64, ptr %129, align 8, !tbaa !3
  %131 = sub nsw i64 9223372036854775807, %130
  %132 = icmp sgt i64 %126, %131
  br i1 %132, label %133, label %134

133:                                              ; preds = %125
  store i64 -2, ptr %14, align 8, !tbaa !3
  br label %145

134:                                              ; preds = %125
  %135 = load ptr, ptr %12, align 8, !tbaa !7
  %136 = load i64, ptr %15, align 8, !tbaa !3
  %137 = getelementptr inbounds i64, ptr %135, i64 %136
  %138 = load i64, ptr %137, align 8, !tbaa !3
  %139 = load i64, ptr %14, align 8, !tbaa !3
  %140 = add nsw i64 %139, %138
  store i64 %140, ptr %14, align 8, !tbaa !3
  br label %141

141:                                              ; preds = %134
  br label %142

142:                                              ; preds = %141
  %143 = load i64, ptr %15, align 8, !tbaa !3
  %144 = add nsw i64 %143, 1
  store i64 %144, ptr %15, align 8, !tbaa !3
  br label %121, !llvm.loop !15

145:                                              ; preds = %133, %121
  %146 = load i64, ptr %14, align 8, !tbaa !3
  store i64 %146, ptr %7, align 8
  store i32 1, ptr %18, align 4
  br label %147

147:                                              ; preds = %145, %78, %43
  call void @llvm.lifetime.end.p0(i64 8, ptr %17) #3
  call void @llvm.lifetime.end.p0(i64 8, ptr %16) #3
  call void @llvm.lifetime.end.p0(i64 8, ptr %15) #3
  call void @llvm.lifetime.end.p0(i64 8, ptr %14) #3
  %148 = load i64, ptr %7, align 8
  ret i64 %148
}