; Function Attrs: nofree norecurse nosync nounwind memory(argmem: readwrite) uwtable
define i64 @QDLDL_etree(i64 noundef %0, ptr noundef readonly captures(none) %1, ptr noundef readonly captures(none) %2, ptr noundef captures(none) %3, ptr noundef captures(none) %4, ptr noundef captures(none) %5) local_unnamed_addr #0 {
  %smax = tail call i64 @llvm.smax.i64(i64 %0, i64 0)
  br label %7

7:                                                ; preds = %9, %6
  %.055 = phi i64 [ 0, %6 ], [ %15, %9 ]
  %exitcond.not = icmp eq i64 %.055, %smax
  br i1 %exitcond.not, label %.preheader64, label %9

.preheader64:                                     ; preds = %7
  %8 = icmp sgt i64 %0, 0
  br i1 %8, label %.lr.ph73, label %.loopexit

9:                                                ; preds = %7
  %10 = getelementptr inbounds nuw i64, ptr %3, i64 %.055
  store i64 0, ptr %10, align 8, !tbaa !3
  %11 = getelementptr inbounds nuw i64, ptr %4, i64 %.055
  store i64 0, ptr %11, align 8, !tbaa !3
  %12 = getelementptr inbounds nuw i64, ptr %5, i64 %.055
  store i64 -1, ptr %12, align 8, !tbaa !3
  %13 = getelementptr inbounds nuw i64, ptr %1, i64 %.055
  %14 = load i64, ptr %13, align 8, !tbaa !3
  %15 = add nuw i64 %.055, 1
  %16 = getelementptr inbounds nuw i64, ptr %1, i64 %15
  %17 = load i64, ptr %16, align 8, !tbaa !3
  %18 = icmp eq i64 %14, %17
  br i1 %18, label %.loopexit, label %7, !llvm.loop !7

.loopexit62:                                      ; preds = %._crit_edge, %.lr.ph73
  %exitcond81.not = icmp eq i64 %22, %0
  br i1 %exitcond81.not, label %.lr.ph76, label %.lr.ph73, !llvm.loop !9

.lr.ph73:                                         ; preds = %.preheader64, %.loopexit62
  %.05472 = phi i64 [ %22, %.loopexit62 ], [ 0, %.preheader64 ]
  %19 = getelementptr inbounds nuw i64, ptr %3, i64 %.05472
  store i64 %.05472, ptr %19, align 8, !tbaa !3
  %20 = getelementptr inbounds nuw i64, ptr %1, i64 %.05472
  %21 = load i64, ptr %20, align 8, !tbaa !3
  %22 = add nuw nsw i64 %.05472, 1
  %23 = getelementptr inbounds nuw i64, ptr %1, i64 %22
  %24 = load i64, ptr %23, align 8, !tbaa !3
  %25 = icmp slt i64 %21, %24
  br i1 %25, label %.lr.ph71, label %.loopexit62

.lr.ph71:                                         ; preds = %.lr.ph73, %._crit_edge
  %26 = phi i64 [ %44, %._crit_edge ], [ %24, %.lr.ph73 ]
  %.069 = phi i64 [ %45, %._crit_edge ], [ %21, %.lr.ph73 ]
  %27 = getelementptr inbounds i64, ptr %2, i64 %.069
  %28 = load i64, ptr %27, align 8, !tbaa !3
  %29 = icmp sgt i64 %28, %.05472
  br i1 %29, label %.loopexit, label %.preheader61

.preheader61:                                     ; preds = %.lr.ph71
  %30 = getelementptr inbounds i64, ptr %3, i64 %28
  %31 = load i64, ptr %30, align 8, !tbaa !3
  %.not67 = icmp eq i64 %31, %.05472
  br i1 %.not67, label %._crit_edge, label %.lr.ph

.lr.ph:                                           ; preds = %.preheader61, %37
  %32 = phi ptr [ %42, %37 ], [ %30, %.preheader61 ]
  %.168 = phi i64 [ %41, %37 ], [ %28, %.preheader61 ]
  %33 = getelementptr inbounds i64, ptr %5, i64 %.168
  %34 = load i64, ptr %33, align 8, !tbaa !3
  %35 = icmp eq i64 %34, -1
  br i1 %35, label %36, label %37

36:                                               ; preds = %.lr.ph
  store i64 %.05472, ptr %33, align 8, !tbaa !3
  br label %37

37:                                               ; preds = %36, %.lr.ph
  %38 = getelementptr inbounds i64, ptr %4, i64 %.168
  %39 = load i64, ptr %38, align 8, !tbaa !3
  %40 = add nsw i64 %39, 1
  store i64 %40, ptr %38, align 8, !tbaa !3
  store i64 %.05472, ptr %32, align 8, !tbaa !3
  %41 = load i64, ptr %33, align 8, !tbaa !3
  %42 = getelementptr inbounds i64, ptr %3, i64 %41
  %43 = load i64, ptr %42, align 8, !tbaa !3
  %.not = icmp eq i64 %43, %.05472
  br i1 %.not, label %._crit_edge.loopexit, label %.lr.ph, !llvm.loop !10

._crit_edge.loopexit:                             ; preds = %37
  %.pre = load i64, ptr %23, align 8, !tbaa !3
  br label %._crit_edge

._crit_edge:                                      ; preds = %._crit_edge.loopexit, %.preheader61
  %44 = phi i64 [ %.pre, %._crit_edge.loopexit ], [ %26, %.preheader61 ]
  %45 = add nsw i64 %.069, 1
  %46 = icmp slt i64 %45, %44
  br i1 %46, label %.lr.ph71, label %.loopexit62, !llvm.loop !11

.lr.ph76:                                         ; preds = %.loopexit62, %51
  %.275 = phi i64 [ %53, %51 ], [ 0, %.loopexit62 ]
  %.05674 = phi i64 [ %52, %51 ], [ 0, %.loopexit62 ]
  %47 = getelementptr inbounds nuw i64, ptr %4, i64 %.275
  %48 = load i64, ptr %47, align 8, !tbaa !3
  %49 = sub nsw i64 9223372036854775807, %48
  %50 = icmp sgt i64 %.05674, %49
  br i1 %50, label %.loopexit, label %51

51:                                               ; preds = %.lr.ph76
  %52 = add nsw i64 %48, %.05674
  %53 = add nuw nsw i64 %.275, 1
  %exitcond82.not = icmp eq i64 %53, %0
  br i1 %exitcond82.not, label %.loopexit, label %.lr.ph76, !llvm.loop !12

.loopexit:                                        ; preds = %9, %.lr.ph71, %.lr.ph76, %51, %.preheader64
  %.058 = phi i64 [ 0, %.preheader64 ], [ -2, %.lr.ph76 ], [ %52, %51 ], [ -1, %.lr.ph71 ], [ -1, %9 ]
  ret i64 %.058
}